; ModuleID = 'bench/openusd/original/primDataHandle.cpp.ll'
source_filename = "bench/openusd/original/primDataHandle.cpp.ll"
target datalayout = "e-m:e-p270:32:32-p271:32:32-p272:64:64-i64:64-i128:128-f80:128-n8:16:32:64-S128"
target triple = "x86_64-pc-linux-gnu"

%"class.std::__cxx11::basic_string" = type { %"struct.std::__cxx11::basic_string<char>::_Alloc_hider", i64, %union.anon }
%"struct.std::__cxx11::basic_string<char>::_Alloc_hider" = type { ptr }
%union.anon = type { i64, [8 x i8] }

; Function Attrs: mustprogress uwtable
define void @_ZNK32pxrInternal_v0_24__pxrReserved__18Usd_PrimDataHandle14GetDescriptionB5cxx11ERKNS_7SdfPathE(ptr dead_on_unwind noalias writable sret(%"class.std::__cxx11::basic_string") align 8 %0, ptr noundef nonnull readonly align 8 captures(none) dereferenceable(8) %1, ptr noundef nonnull align 4 dereferenceable(8) %2) local_unnamed_addr #0 align 2 {
  %4 = load ptr, ptr %1, align 8
  tail call void @_ZN32pxrInternal_v0_24__pxrReserved__20Usd_DescribePrimDataB5cxx11EPKNS_12Usd_PrimDataERKNS_7SdfPathE(ptr dead_on_unwind writable sret(%"class.std::__cxx11::basic_string") align 8 %0, ptr noundef %4, ptr noundef nonnull align 4 dereferenceable(8) %2)
  ret void
}

declare void @_ZN32pxrInternal_v0_24__pxrReserved__20Usd_DescribePrimDataB5cxx11EPKNS_12Usd_PrimDataERKNS_7SdfPathE(ptr dead_on_unwind writable sret(%"class.std::__cxx11::basic_string") align 8, ptr noundef, ptr noundef nonnull align 4 dereferenceable(8)) local_unnamed_addr #1


!llvm.module.flags = !{!0, !1, !2, !3}

!0 = !{i32 1, !"wchar_size", i32 4}
!1 = !{i32 8, !"PIC Level", i32 2}
!2 = !{i32 7, !"uwtable", i32 2}
!3 = !{i32 7, !"frame-pointer", i32 2}
